(dp0
S'engine'
p1
Vxelatex
p2
sS'packages'
p3
c__builtin__
set
p4
((lp5
S'hyperref'
p6
aS'booktabs'
p7
aS'amsmath'
p8
aS'float'
p9
aS'color'
p10
aS'algorithm2e'
p11
aS'fontenc'
p12
aS'palatino'
p13
aS'graphicx'
p14
aS'subfig'
p15
aS'amssymb'
p16
atp17
Rp18
sS'files_with_guttermarks'
p19
g4
((lp20
S'/Users/dean/Dropbox/BCRLB/manuscript/./notes.tex'
p21
aS'notes.tex'
p22
atp23
Rp24
sS'synctex'
p25
I01
s.